(dp1
S'rnn_num'
p2
I1
sS'emb_dim'
p3
I64
sS'graphic'
p4
I00
sS'pooling_size'
p5
I2
sS'drop_out'
p6
F0.5
sS'word_vec'
p7
I01
sS'buckets_char'
p8
(lp9
I100
aI199
aI292
aI376
aI428
aI431
asS'radical'
p10
I00
sS'rnn_dim'
p11
I200
sS'pic_size'
p12
I30
sS'nums_chars'
p13
I4551
sS'nums_tags'
p14
(lp15
I129
asS'filter_size'
p16
I5
sS'ngram'
p17
NsS'gru'
p18
I01
sS'tag_scheme'
p19
S'BIES'
p20
sS'filters'
p21
I100
sS'crf'
p22
I1
sS'font'
p23
S'simsun.ttc'
p24
s.